; ModuleID = 'source-C-CXX/24/366.cpp'
source_filename = "source-C-CXX/24/366.cpp"
target datalayout = "e-m:e-p270:32:32-p271:32:32-p272:64:64-i64:64-f80:128-n8:16:32:64-S128"
target triple = "x86_64-pc-linux-gnu"

%"class.std::ios_base::Init" = type { i8 }
%"class.std::basic_istream" = type { i32 (...)**, i64, %"class.std::basic_ios" }
%"class.std::basic_ios" = type { %"class.std::ios_base", %"class.std::basic_ostream"*, i8, i8, %"class.std::basic_streambuf"*, %"class.std::ctype"*, %"class.std::num_put"*, %"class.std::num_get"* }
%"class.std::ios_base" = type { i32 (...)**, i64, i64, i32, i32, i32, %"struct.std::ios_base::_Callback_list"*, %"struct.std::ios_base::_Words", [8 x %"struct.std::ios_base::_Words"], i32, %"struct.std::ios_base::_Words"*, %"class.std::locale" }
%"struct.std::ios_base::_Callback_list" = type { %"struct.std::ios_base::_Callback_list"*, void (i32, %"class.std::ios_base"*, i32)*, i32, i32 }
%"struct.std::ios_base::_Words" = type { i8*, i64 }
%"class.std::locale" = type { %"class.std::locale::_Impl"* }
%"class.std::locale::_Impl" = type { i32, %"class.std::locale::facet"**, i64, %"class.std::locale::facet"**, i8** }
%"class.std::locale::facet" = type <{ i32 (...)**, i32, [4 x i8] }>
%"class.std::basic_ostream" = type { i32 (...)**, %"class.std::basic_ios" }
%"class.std::basic_streambuf" = type { i32 (...)**, i8*, i8*, i8*, i8*, i8*, i8*, %"class.std::locale" }
%"class.std::ctype" = type <{ %"class.std::locale::facet.base", [4 x i8], %struct.__locale_struct*, i8, [7 x i8], i32*, i32*, i16*, i8, [256 x i8], [256 x i8], i8, [6 x i8] }>
%"class.std::locale::facet.base" = type <{ i32 (...)**, i32 }>
%struct.__locale_struct = type { [13 x %struct.__locale_data*], i16*, i32*, i32*, [13 x i8*] }
%struct.__locale_data = type opaque
%"class.std::num_put" = type { %"class.std::locale::facet.base", [4 x i8] }
%"class.std::num_get" = type { %"class.std::locale::facet.base", [4 x i8] }

@_ZStL8__ioinit = internal global %"class.std::ios_base::Init" zeroinitializer, align 1
@__dso_handle = external hidden global i8
@_ZSt3cin = external global %"class.std::basic_istream", align 8
@_ZSt4cout = external global %"class.std::basic_ostream", align 8
@llvm.global_ctors = appending global [1 x { i32, void ()*, i8* }] [{ i32, void ()*, i8* } { i32 65535, void ()* @_GLOBAL__sub_I_366.cpp, i8* null }]

declare void @_ZNSt8ios_base4InitC1Ev(%"class.std::ios_base::Init"* nonnull align 1 dereferenceable(1)) unnamed_addr #0

; Function Attrs: nounwind
declare void @_ZNSt8ios_base4InitD1Ev(%"class.std::ios_base::Init"* nonnull align 1 dereferenceable(1)) unnamed_addr #1

; Function Attrs: nofree nounwind
declare i32 @__cxa_atexit(void (i8*)*, i8*, i8*) local_unnamed_addr #2

; Function Attrs: mustprogress norecurse sspstrong uwtable
define dso_local i32 @main() local_unnamed_addr #3 {
  %1 = alloca i32, align 4
  %2 = alloca [100001 x i32], align 16
  %3 = bitcast i32* %1 to i8*
  call void @llvm.lifetime.start.p0i8(i64 4, i8* nonnull %3) #7
  %4 = bitcast [100001 x i32]* %2 to i8*
  call void @llvm.lifetime.start.p0i8(i64 400004, i8* nonnull %4) #7
  %5 = call nonnull align 8 dereferenceable(16) %"class.std::basic_istream"* @_ZNSirsERi(%"class.std::basic_istream"* nonnull align 8 dereferenceable(16) @_ZSt3cin, i32* nonnull align 4 dereferenceable(4) %1)
  %6 = getelementptr inbounds [100001 x i32], [100001 x i32]* %2, i64 0, i64 0
  call void @llvm.memset.p0i8.i64(i8* noundef nonnull align 16 dereferenceable(400004) %4, i8 0, i64 400004, i1 false)
  store i32 1, i32* %6, align 16, !tbaa !5
  %7 = load i32, i32* %1, align 4, !tbaa !5
  %8 = icmp sgt i32 %7, 0
  br i1 %8, label %9, label %60

9:                                                ; preds = %0
  %10 = getelementptr inbounds [100001 x i32], [100001 x i32]* %2, i64 0, i64 100000
  br label %11

11:                                               ; preds = %9, %57
  %12 = phi i32 [ %58, %57 ], [ 0, %9 ]
  br label %13

13:                                               ; preds = %13, %11
  %14 = phi i64 [ 0, %11 ], [ %36, %13 ]
  %15 = getelementptr inbounds [100001 x i32], [100001 x i32]* %2, i64 0, i64 %14
  %16 = bitcast i32* %15 to <4 x i32>*
  %17 = load <4 x i32>, <4 x i32>* %16, align 16, !tbaa !5
  %18 = getelementptr inbounds i32, i32* %15, i64 4
  %19 = bitcast i32* %18 to <4 x i32>*
  %20 = load <4 x i32>, <4 x i32>* %19, align 16, !tbaa !5
  %21 = shl nsw <4 x i32> %17, <i32 1, i32 1, i32 1, i32 1>
  %22 = shl nsw <4 x i32> %20, <i32 1, i32 1, i32 1, i32 1>
  %23 = bitcast i32* %15 to <4 x i32>*
  store <4 x i32> %21, <4 x i32>* %23, align 16, !tbaa !5
  %24 = bitcast i32* %18 to <4 x i32>*
  store <4 x i32> %22, <4 x i32>* %24, align 16, !tbaa !5
  %25 = or i64 %14, 8
  %26 = getelementptr inbounds [100001 x i32], [100001 x i32]* %2, i64 0, i64 %25
  %27 = bitcast i32* %26 to <4 x i32>*
  %28 = load <4 x i32>, <4 x i32>* %27, align 16, !tbaa !5
  %29 = getelementptr inbounds i32, i32* %26, i64 4
  %30 = bitcast i32* %29 to <4 x i32>*
  %31 = load <4 x i32>, <4 x i32>* %30, align 16, !tbaa !5
  %32 = shl nsw <4 x i32> %28, <i32 1, i32 1, i32 1, i32 1>
  %33 = shl nsw <4 x i32> %31, <i32 1, i32 1, i32 1, i32 1>
  %34 = bitcast i32* %26 to <4 x i32>*
  store <4 x i32> %32, <4 x i32>* %34, align 16, !tbaa !5
  %35 = bitcast i32* %29 to <4 x i32>*
  store <4 x i32> %33, <4 x i32>* %35, align 16, !tbaa !5
  %36 = add nuw nsw i64 %14, 16
  %37 = icmp eq i64 %36, 100000
  br i1 %37, label %38, label %13, !llvm.loop !9

38:                                               ; preds = %13
  %39 = load i32, i32* %10, align 16, !tbaa !5
  %40 = shl nsw i32 %39, 1
  store i32 %40, i32* %10, align 16, !tbaa !5
  br label %41

41:                                               ; preds = %38, %54
  %42 = phi i64 [ %55, %54 ], [ 0, %38 ]
  %43 = getelementptr inbounds [100001 x i32], [100001 x i32]* %2, i64 0, i64 %42
  %44 = load i32, i32* %43, align 4, !tbaa !5
  %45 = icmp sgt i32 %44, 9
  br i1 %45, label %48, label %46

46:                                               ; preds = %41
  %47 = add nuw nsw i64 %42, 1
  br label %54

48:                                               ; preds = %41
  %49 = add nsw i32 %44, -10
  store i32 %49, i32* %43, align 4, !tbaa !5
  %50 = add nuw nsw i64 %42, 1
  %51 = getelementptr inbounds [100001 x i32], [100001 x i32]* %2, i64 0, i64 %50
  %52 = load i32, i32* %51, align 4, !tbaa !5
  %53 = add nsw i32 %52, 1
  store i32 %53, i32* %51, align 4, !tbaa !5
  br label %54

54:                                               ; preds = %46, %48
  %55 = phi i64 [ %47, %46 ], [ %50, %48 ]
  %56 = icmp eq i64 %55, 100001
  br i1 %56, label %57, label %41, !llvm.loop !12

57:                                               ; preds = %54
  %58 = add nuw nsw i32 %12, 1
  %59 = icmp eq i32 %58, %7
  br i1 %59, label %60, label %11, !llvm.loop !13

60:                                               ; preds = %57, %0
  br label %61

61:                                               ; preds = %60, %72
  %62 = phi i64 [ %74, %72 ], [ 100000, %60 ]
  %63 = phi i32 [ %73, %72 ], [ 0, %60 ]
  %64 = icmp eq i32 %63, 0
  %65 = getelementptr inbounds [100001 x i32], [100001 x i32]* %2, i64 0, i64 %62
  %66 = load i32, i32* %65, align 4, !tbaa !5
  br i1 %64, label %67, label %69

67:                                               ; preds = %61
  %68 = icmp eq i32 %66, 0
  br i1 %68, label %72, label %69

69:                                               ; preds = %61, %67
  %70 = phi i32 [ 1, %67 ], [ %63, %61 ]
  %71 = call nonnull align 8 dereferenceable(8) %"class.std::basic_ostream"* @_ZNSolsEi(%"class.std::basic_ostream"* nonnull align 8 dereferenceable(8) @_ZSt4cout, i32 %66)
  br label %72

72:                                               ; preds = %69, %67
  %73 = phi i32 [ 0, %67 ], [ %70, %69 ]
  %74 = add nsw i64 %62, -1
  %75 = icmp eq i64 %62, 0
  br i1 %75, label %76, label %61, !llvm.loop !14

76:                                               ; preds = %72
  call void @llvm.lifetime.end.p0i8(i64 400004, i8* nonnull %4) #7
  call void @llvm.lifetime.end.p0i8(i64 4, i8* nonnull %3) #7
  ret i32 0
}

; Function Attrs: argmemonly mustprogress nofree nosync nounwind willreturn
declare void @llvm.lifetime.start.p0i8(i64 immarg, i8* nocapture) #4

declare nonnull align 8 dereferenceable(16) %"class.std::basic_istream"* @_ZNSirsERi(%"class.std::basic_istream"* nonnull align 8 dereferenceable(16), i32* nonnull align 4 dereferenceable(4)) local_unnamed_addr #0

; Function Attrs: argmemonly mustprogress nofree nounwind willreturn writeonly
declare void @llvm.memset.p0i8.i64(i8* nocapture writeonly, i8, i64, i1 immarg) #5

declare nonnull align 8 dereferenceable(8) %"class.std::basic_ostream"* @_ZNSolsEi(%"class.std::basic_ostream"* nonnull align 8 dereferenceable(8), i32) local_unnamed_addr #0

; Function Attrs: argmemonly mustprogress nofree nosync nounwind willreturn
declare void @llvm.lifetime.end.p0i8(i64 immarg, i8* nocapture) #4

; Function Attrs: sspstrong uwtable
define internal void @_GLOBAL__sub_I_366.cpp() #6 section ".text.startup" {
  tail call void @_ZNSt8ios_base4InitC1Ev(%"class.std::ios_base::Init"* nonnull align 1 dereferenceable(1) @_ZStL8__ioinit)
  %1 = tail call i32 @__cxa_atexit(void (i8*)* bitcast (void (%"class.std::ios_base::Init"*)* @_ZNSt8ios_base4InitD1Ev to void (i8*)*), i8* getelementptr inbounds (%"class.std::ios_base::Init", %"class.std::ios_base::Init"* @_ZStL8__ioinit, i64 0, i32 0), i8* nonnull @__dso_handle) #7
  ret void
}


!llvm.module.flags = !{!0, !1, !2, !3}
!llvm.ident = !{!4}

!0 = !{i32 1, !"wchar_size", i32 4}
!1 = !{i32 7, !"PIC Level", i32 2}
!2 = !{i32 7, !"PIE Level", i32 2}
!3 = !{i32 7, !"uwtable", i32 1}
!4 = !{!"clang version 13.0.0"}
!5 = !{!6, !6, i64 0}
!6 = !{!"int", !7, i64 0}
!7 = !{!"omnipotent char", !8, i64 0}
!8 = !{!"Simple C++ TBAA"}
!9 = distinct !{!9, !10, !11}
!10 = !{!"llvm.loop.mustprogress"}
!11 = !{!"llvm.loop.isvectorized", i32 1}
!12 = distinct !{!12, !10}
!13 = distinct !{!13, !10}
!14 = distinct !{!14, !10}
